target datalayout = "e-m:e-p270:32:32-p271:32:32-p272:64:64-i64:64-i128:128-f80:128-n8:16:32:64-S128"
target triple = "x86_64-unknown-linux-gnu"

@gwidth = internal global i32 0, align 4
@gheight = internal global i32 0, align 4

; Function Attrs: nounwind sspstrong uwtable
define internal void @curses_resize(ptr noundef %dcl, i32 noundef %width, i32 noundef %height) #0 {
entry:
  %dcl.addr = alloca ptr, align 8
  %width.addr = alloca i32, align 4
  %height.addr = alloca i32, align 4
  store ptr %dcl, ptr %dcl.addr, align 8
  store i32 %width, ptr %width.addr, align 4
  store i32 %height, ptr %height.addr, align 4
  %0 = load i32, ptr %width.addr, align 4
  %1 = load i32, ptr @gwidth, align 4
  %cmp = icmp eq i32 %0, %1
  br i1 %cmp, label %land.lhs.true, label %if.end

land.lhs.true:                                    ; preds = %entry
  %2 = load i32, ptr %height.addr, align 4
  %3 = load i32, ptr @gheight, align 4
  %cmp1 = icmp eq i32 %2, %3
  br i1 %cmp1, label %if.then, label %if.end

if.then:                                          ; preds = %land.lhs.true
  br label %return

if.end:                                           ; preds = %land.lhs.true, %entry
  %4 = load i32, ptr %width.addr, align 4
  store i32 %4, ptr @gwidth, align 4
  %5 = load i32, ptr %height.addr, align 4
  store i32 %5, ptr @gheight, align 4
  call void @curses_calc_pad()
  br label %return

return:                                           ; preds = %if.end, %if.then
  ret void
}