; Function Attrs: nounwind sspstrong uwtable
define internal void @curses_resize(ptr readnone captures(none) %dcl, i32 noundef %width, i32 noundef %height) #0 {
entry:
  %0 = load i32, ptr @gwidth, align 4
  %cmp = icmp eq i32 %width, %0
  %1 = load i32, ptr @gheight, align 4
  %cmp1 = icmp eq i32 %height, %1
  %or.cond = select i1 %cmp, i1 %cmp1, i1 false
  br i1 %or.cond, label %return, label %if.end

if.end:                                           ; preds = %entry
  store i32 %width, ptr @gwidth, align 4
  store i32 %height, ptr @gheight, align 4
  tail call fastcc void @curses_calc_pad()
  br label %return

return:                                           ; preds = %entry, %if.end
  ret void
}